target datalayout = "e-m:e-p270:32:32-p271:32:32-p272:64:64-i64:64-i128:128-f80:128-n8:16:32:64-S128"
target triple = "x86_64-pc-linux-gnu"

%"class.icu_77::RBBITableBuilder" = type <{ ptr, ptr, ptr, ptr, ptr, ptr, i32, [4 x i8] }>
%"class.icu_77::UVector" = type { %"class.icu_77::UObject", i32, i32, ptr, ptr, ptr }
%"class.icu_77::UObject" = type { ptr }
%"class.icu_77::RBBIRuleBuilder" = type { ptr, ptr, ptr, ptr, ptr, %"class.icu_77::UnicodeString", ptr, ptr, ptr, ptr, ptr, ptr, i8, i8, ptr, ptr, ptr, ptr }
%"class.icu_77::UnicodeString" = type { %"class.icu_77::Replaceable", %"union.icu_77::UnicodeString::StackBufferOrFields" }
%"class.icu_77::Replaceable" = type { %"class.icu_77::UObject" }
%"union.icu_77::UnicodeString::StackBufferOrFields" = type { %struct.anon.0, [32 x i8] }
%struct.anon.0 = type { i16, i32, i32, ptr }
%"class.icu_77::RBBINode" = type { i32, ptr, ptr, ptr, ptr, i32, %"class.icu_77::UnicodeString", i32, i32, i8, i32, i8, i8, i8, ptr, ptr, ptr }
%"class.icu_77::RBBIStateDescriptor" = type { i8, i32, i32, ptr, i32, ptr, ptr }
%"class.icu_77::UVector32" = type { %"class.icu_77::UObject", i32, i32, i32, ptr }

; Function Attrs: inlinehint mustprogress nounwind uwtable
define linkonce_odr noundef i32 @_ZNK6icu_779UVector3210elementAtiEi(ptr noundef nonnull align 8 dereferenceable(32) %0, i32 noundef %1) #1 comdat align 2 {
  %3 = alloca ptr, align 8
  %4 = alloca i32, align 4
  store ptr %0, ptr %3, align 8, !tbaa !110
  store i32 %1, ptr %4, align 4, !tbaa !26
  %5 = load ptr, ptr %3, align 8
  %6 = load i32, ptr %4, align 4, !tbaa !26
  %7 = icmp sge i32 %6, 0
  br i1 %7, label %8, label %25

8:                                                ; preds = %2
  %9 = getelementptr inbounds nuw %"class.icu_77::UVector32", ptr %5, i32 0, i32 1
  %10 = load i32, ptr %9, align 8, !tbaa !111
  %11 = icmp sgt i32 %10, 0
  br i1 %11, label %12, label %25

12:                                               ; preds = %8
  %13 = getelementptr inbounds nuw %"class.icu_77::UVector32", ptr %5, i32 0, i32 1
  %14 = load i32, ptr %13, align 8, !tbaa !111
  %15 = load i32, ptr %4, align 4, !tbaa !26
  %16 = sub nsw i32 %14, %15
  %17 = icmp sgt i32 %16, 0
  br i1 %17, label %18, label %25

18:                                               ; preds = %12
  %19 = getelementptr inbounds nuw %"class.icu_77::UVector32", ptr %5, i32 0, i32 4
  %20 = load ptr, ptr %19, align 8, !tbaa !114
  %21 = load i32, ptr %4, align 4, !tbaa !26
  %22 = sext i32 %21 to i64
  %23 = getelementptr inbounds i32, ptr %20, i64 %22
  %24 = load i32, ptr %23, align 4, !tbaa !26
  br label %26

25:                                               ; preds = %12, %8, %2
  br label %26

26:                                               ; preds = %25, %18
  %27 = phi i32 [ %24, %18 ], [ 0, %25 ]
  ret i32 %27
}

; Function Attrs: inlinehint mustprogress nounwind uwtable
define linkonce_odr noundef i32 @_ZNK6icu_777UVector4sizeEv(ptr noundef nonnull align 8 dereferenceable(40) %0) #1 comdat align 2 {
  %2 = alloca ptr, align 8
  store ptr %0, ptr %2, align 8, !tbaa !31
  %3 = load ptr, ptr %2, align 8
  %4 = getelementptr inbounds nuw %"class.icu_77::UVector", ptr %3, i32 0, i32 1
  %5 = load i32, ptr %4, align 8, !tbaa !32
  ret i32 %5
}

; Function Attrs: inlinehint mustprogress nounwind uwtable
define internal noundef signext i8 @_ZL9U_FAILURE10UErrorCode(i32 noundef %0) #1 {
  %2 = alloca i32, align 4
  store i32 %0, ptr %2, align 4, !tbaa !24
  %3 = load i32, ptr %2, align 4, !tbaa !24
  %4 = icmp sgt i32 %3, 0
  %5 = zext i1 %4 to i8
  ret i8 %5
}

; Function Attrs: mustprogress uwtable
define void @_ZN6icu_7716RBBITableBuilder17mapLookAheadRulesEv(ptr noundef nonnull align 8 dereferenceable(52) %0) #0 align 2 personality ptr @__gxx_personality_v0 {
  %2 = alloca ptr, align 8
  %3 = alloca i1, align 1
  %4 = alloca ptr, align 8
  %5 = alloca i32, align 4
  %6 = alloca i32, align 4
  %7 = alloca i32, align 4
  %8 = alloca ptr, align 8
  %9 = alloca i32, align 4
  %10 = alloca i8, align 1
  %11 = alloca i32, align 4
  %12 = alloca ptr, align 8
  %13 = alloca i32, align 4
  %14 = alloca i32, align 4
  %15 = alloca i32, align 4
  %16 = alloca ptr, align 8
  %17 = alloca i32, align 4
  %18 = alloca i32, align 4
  store ptr %0, ptr %2, align 8, !tbaa !3
  %19 = load ptr, ptr %2, align 8
  %20 = call noundef ptr @_ZN6icu_777UMemorynwEm(i64 noundef 32) #11
  %21 = icmp eq ptr %20, null
  store i1 false, ptr %3, align 1
  br i1 %21, label %33, label %22

22:                                               ; preds = %1
  store i1 true, ptr %3, align 1
  %23 = getelementptr inbounds nuw %"class.icu_77::RBBITableBuilder", ptr %19, i32 0, i32 0
  %24 = load ptr, ptr %23, align 8, !tbaa !14
  %25 = getelementptr inbounds nuw %"class.icu_77::RBBIRuleBuilder", ptr %24, i32 0, i32 6
  %26 = load ptr, ptr %25, align 8, !tbaa !82
  %27 = invoke noundef i32 @_ZN6icu_7715RBBIRuleScanner8numRulesEv(ptr noundef nonnull align 8 dereferenceable(3192) %26)
          to label %28 unwind label %42

28:                                               ; preds = %22
  %29 = add nsw i32 %27, 1
  %30 = getelementptr inbounds nuw %"class.icu_77::RBBITableBuilder", ptr %19, i32 0, i32 2
  %31 = load ptr, ptr %30, align 8, !tbaa !19
  invoke void @_ZN6icu_779UVector32C1EiR10UErrorCode(ptr noundef nonnull align 8 dereferenceable(32) %20, i32 noundef %29, ptr noundef nonnull align 4 dereferenceable(4) %31)
          to label %32 unwind label %42

32:                                               ; preds = %28
  br label %33

33:                                               ; preds = %32, %1
  %34 = phi ptr [ %20, %32 ], [ null, %1 ]
  %35 = getelementptr inbounds nuw %"class.icu_77::RBBITableBuilder", ptr %19, i32 0, i32 5
  store ptr %34, ptr %35, align 8, !tbaa !22
  %36 = getelementptr inbounds nuw %"class.icu_77::RBBITableBuilder", ptr %19, i32 0, i32 5
  %37 = load ptr, ptr %36, align 8, !tbaa !22
  %38 = icmp eq ptr %37, null
  br i1 %38, label %39, label %49

39:                                               ; preds = %33
  %40 = getelementptr inbounds nuw %"class.icu_77::RBBITableBuilder", ptr %19, i32 0, i32 2
  %41 = load ptr, ptr %40, align 8, !tbaa !19
  store i32 7, ptr %41, align 4, !tbaa !24
  br label %49

42:                                               ; preds = %28, %22
  %43 = landingpad { ptr, i32 }
          cleanup
  %44 = extractvalue { ptr, i32 } %43, 0
  store ptr %44, ptr %4, align 8
  %45 = extractvalue { ptr, i32 } %43, 1
  store i32 %45, ptr %5, align 4
  %46 = load i1, ptr %3, align 1
  br i1 %46, label %47, label %48

47:                                               ; preds = %42
  call void @_ZN6icu_777UMemorydlEPv(ptr noundef %20) #11
  br label %48

48:                                               ; preds = %47, %42
  br label %177

49:                                               ; preds = %39, %33
  %50 = getelementptr inbounds nuw %"class.icu_77::RBBITableBuilder", ptr %19, i32 0, i32 2
  %51 = load ptr, ptr %50, align 8, !tbaa !19
  %52 = load i32, ptr %51, align 4, !tbaa !24
  %53 = call noundef signext i8 @_ZL9U_FAILURE10UErrorCode(i32 noundef %52)
  %54 = icmp ne i8 %53, 0
  br i1 %54, label %55, label %56

55:                                               ; preds = %49
  br label %176

56:                                               ; preds = %49
  %57 = getelementptr inbounds nuw %"class.icu_77::RBBITableBuilder", ptr %19, i32 0, i32 5
  %58 = load ptr, ptr %57, align 8, !tbaa !22
  %59 = getelementptr inbounds nuw %"class.icu_77::RBBITableBuilder", ptr %19, i32 0, i32 0
  %60 = load ptr, ptr %59, align 8, !tbaa !14
  %61 = getelementptr inbounds nuw %"class.icu_77::RBBIRuleBuilder", ptr %60, i32 0, i32 6
  %62 = load ptr, ptr %61, align 8, !tbaa !82
  %63 = call noundef i32 @_ZN6icu_7715RBBIRuleScanner8numRulesEv(ptr noundef nonnull align 8 dereferenceable(3192) %62)
  %64 = add nsw i32 %63, 1
  call void @_ZN6icu_779UVector327setSizeEi(ptr noundef nonnull align 8 dereferenceable(32) %58, i32 noundef %64)
  call void @llvm.lifetime.start.p0(i64 4, ptr %6) #11
  store i32 0, ptr %6, align 4, !tbaa !26
  br label %65

65:                                               ; preds = %173, %56
  %66 = load i32, ptr %6, align 4, !tbaa !26
  %67 = getelementptr inbounds nuw %"class.icu_77::RBBITableBuilder", ptr %19, i32 0, i32 3
  %68 = load ptr, ptr %67, align 8, !tbaa !20
  %69 = call noundef i32 @_ZNK6icu_777UVector4sizeEv(ptr noundef nonnull align 8 dereferenceable(40) %68)
  %70 = icmp slt i32 %66, %69
  br i1 %70, label %72, label %71

71:                                               ; preds = %65
  store i32 2, ptr %7, align 4
  call void @llvm.lifetime.end.p0(i64 4, ptr %6) #11
  br label %176

72:                                               ; preds = %65
  call void @llvm.lifetime.start.p0(i64 8, ptr %8) #11
  %73 = getelementptr inbounds nuw %"class.icu_77::RBBITableBuilder", ptr %19, i32 0, i32 3
  %74 = load ptr, ptr %73, align 8, !tbaa !20
  %75 = load i32, ptr %6, align 4, !tbaa !26
  %76 = call noundef ptr @_ZNK6icu_777UVector9elementAtEi(ptr noundef nonnull align 8 dereferenceable(40) %74, i32 noundef %75)
  store ptr %76, ptr %8, align 8, !tbaa !70
  call void @llvm.lifetime.start.p0(i64 4, ptr %9) #11
  store i32 0, ptr %9, align 4, !tbaa !26
  call void @llvm.lifetime.start.p0(i64 1, ptr %10) #11
  store i8 0, ptr %10, align 1, !tbaa !83
  call void @llvm.lifetime.start.p0(i64 4, ptr %11) #11
  store i32 0, ptr %11, align 4, !tbaa !26
  br label %77

77:                                               ; preds = %117, %72
  %78 = load i32, ptr %11, align 4, !tbaa !26
  %79 = load ptr, ptr %8, align 8, !tbaa !70
  %80 = getelementptr inbounds nuw %"class.icu_77::RBBIStateDescriptor", ptr %79, i32 0, i32 5
  %81 = load ptr, ptr %80, align 8, !tbaa !72
  %82 = call noundef i32 @_ZNK6icu_777UVector4sizeEv(ptr noundef nonnull align 8 dereferenceable(40) %81)
  %83 = icmp slt i32 %78, %82
  br i1 %83, label %85, label %84

84:                                               ; preds = %77
  store i32 5, ptr %7, align 4
  call void @llvm.lifetime.end.p0(i64 4, ptr %11) #11
  br label %120

85:                                               ; preds = %77
  call void @llvm.lifetime.start.p0(i64 8, ptr %12) #11
  %86 = load ptr, ptr %8, align 8, !tbaa !70
  %87 = getelementptr inbounds nuw %"class.icu_77::RBBIStateDescriptor", ptr %86, i32 0, i32 5
  %88 = load ptr, ptr %87, align 8, !tbaa !72
  %89 = load i32, ptr %11, align 4, !tbaa !26
  %90 = call noundef ptr @_ZNK6icu_777UVector9elementAtEi(ptr noundef nonnull align 8 dereferenceable(40) %88, i32 noundef %89)
  store ptr %90, ptr %12, align 8, !tbaa !37
  %91 = load ptr, ptr %12, align 8, !tbaa !37
  %92 = getelementptr inbounds nuw %"class.icu_77::RBBINode", ptr %91, i32 0, i32 0
  %93 = load i32, ptr %92, align 8, !tbaa !58
  %94 = icmp ne i32 %93, 4
  br i1 %94, label %95, label %96

95:                                               ; preds = %85
  store i32 7, ptr %7, align 4
  br label %114

96:                                               ; preds = %85
  store i8 1, ptr %10, align 1, !tbaa !83
  call void @llvm.lifetime.start.p0(i64 4, ptr %13) #11
  %97 = load ptr, ptr %12, align 8, !tbaa !37
  %98 = getelementptr inbounds nuw %"class.icu_77::RBBINode", ptr %97, i32 0, i32 10
  %99 = load i32, ptr %98, align 4, !tbaa !55
  store i32 %99, ptr %13, align 4, !tbaa !26
  call void @llvm.lifetime.start.p0(i64 4, ptr %14) #11
  %100 = getelementptr inbounds nuw %"class.icu_77::RBBITableBuilder", ptr %19, i32 0, i32 5
  %101 = load ptr, ptr %100, align 8, !tbaa !22
  %102 = load i32, ptr %13, align 4, !tbaa !26
  %103 = call noundef i32 @_ZNK6icu_779UVector3210elementAtiEi(ptr noundef nonnull align 8 dereferenceable(32) %101, i32 noundef %102)
  store i32 %103, ptr %14, align 4, !tbaa !26
  %104 = load i32, ptr %14, align 4, !tbaa !26
  %105 = icmp ne i32 %104, 0
  br i1 %105, label %106, label %113

106:                                              ; preds = %96
  %107 = load i32, ptr %9, align 4, !tbaa !26
  %108 = icmp eq i32 %107, 0
  br i1 %108, label %109, label %111

109:                                              ; preds = %106
  %110 = load i32, ptr %14, align 4, !tbaa !26
  store i32 %110, ptr %9, align 4, !tbaa !26
  br label %112

111:                                              ; preds = %106
  br label %112

112:                                              ; preds = %111, %109
  br label %113

113:                                              ; preds = %112, %96
  call void @llvm.lifetime.end.p0(i64 4, ptr %14) #11
  call void @llvm.lifetime.end.p0(i64 4, ptr %13) #11
  store i32 0, ptr %7, align 4
  br label %114

114:                                              ; preds = %113, %95
  call void @llvm.lifetime.end.p0(i64 8, ptr %12) #11
  %115 = load i32, ptr %7, align 4
  switch i32 %115, label %182 [
    i32 0, label %116
    i32 7, label %117
  ]

116:                                              ; preds = %114
  br label %117

117:                                              ; preds = %116, %114
  %118 = load i32, ptr %11, align 4, !tbaa !26
  %119 = add nsw i32 %118, 1
  store i32 %119, ptr %11, align 4, !tbaa !26
  br label %77, !llvm.loop !85

120:                                              ; preds = %84
  %121 = load i8, ptr %10, align 1, !tbaa !83, !range !86, !noundef !87
  %122 = trunc i8 %121 to i1
  br i1 %122, label %124, label %123

123:                                              ; preds = %120
  store i32 4, ptr %7, align 4
  br label %170

124:                                              ; preds = %120
  %125 = load i32, ptr %9, align 4, !tbaa !26
  %126 = icmp eq i32 %125, 0
  br i1 %126, label %127, label %131

127:                                              ; preds = %124
  %128 = getelementptr inbounds nuw %"class.icu_77::RBBITableBuilder", ptr %19, i32 0, i32 6
  %129 = load i32, ptr %128, align 8, !tbaa !23
  %130 = add nsw i32 %129, 1
  store i32 %130, ptr %128, align 8, !tbaa !23
  store i32 %130, ptr %9, align 4, !tbaa !26
  br label %131

131:                                              ; preds = %127, %124
  call void @llvm.lifetime.start.p0(i64 4, ptr %15) #11
  store i32 0, ptr %15, align 4, !tbaa !26
  br label %132

132:                                              ; preds = %166, %131
  %133 = load i32, ptr %15, align 4, !tbaa !26
  %134 = load ptr, ptr %8, align 8, !tbaa !70
  %135 = getelementptr inbounds nuw %"class.icu_77::RBBIStateDescriptor", ptr %134, i32 0, i32 5
  %136 = load ptr, ptr %135, align 8, !tbaa !72
  %137 = call noundef i32 @_ZNK6icu_777UVector4sizeEv(ptr noundef nonnull align 8 dereferenceable(40) %136)
  %138 = icmp slt i32 %133, %137
  br i1 %138, label %140, label %139

139:                                              ; preds = %132
  store i32 8, ptr %7, align 4
  call void @llvm.lifetime.end.p0(i64 4, ptr %15) #11
  br label %169

140:                                              ; preds = %132
  call void @llvm.lifetime.start.p0(i64 8, ptr %16) #11
  %141 = load ptr, ptr %8, align 8, !tbaa !70
  %142 = getelementptr inbounds nuw %"class.icu_77::RBBIStateDescriptor", ptr %141, i32 0, i32 5
  %143 = load ptr, ptr %142, align 8, !tbaa !72
  %144 = load i32, ptr %15, align 4, !tbaa !26
  %145 = call noundef ptr @_ZNK6icu_777UVector9elementAtEi(ptr noundef nonnull align 8 dereferenceable(40) %143, i32 noundef %144)
  store ptr %145, ptr %16, align 8, !tbaa !37
  %146 = load ptr, ptr %16, align 8, !tbaa !37
  %147 = getelementptr inbounds nuw %"class.icu_77::RBBINode", ptr %146, i32 0, i32 0
  %148 = load i32, ptr %147, align 8, !tbaa !58
  %149 = icmp ne i32 %148, 4
  br i1 %149, label %150, label %151

150:                                              ; preds = %140
  store i32 10, ptr %7, align 4
  br label %163

151:                                              ; preds = %140
  call void @llvm.lifetime.start.p0(i64 4, ptr %17) #11
  %152 = load ptr, ptr %16, align 8, !tbaa !37
  %153 = getelementptr inbounds nuw %"class.icu_77::RBBINode", ptr %152, i32 0, i32 10
  %154 = load i32, ptr %153, align 4, !tbaa !55
  store i32 %154, ptr %17, align 4, !tbaa !26
  call void @llvm.lifetime.start.p0(i64 4, ptr %18) #11
  %155 = getelementptr inbounds nuw %"class.icu_77::RBBITableBuilder", ptr %19, i32 0, i32 5
  %156 = load ptr, ptr %155, align 8, !tbaa !22
  %157 = load i32, ptr %17, align 4, !tbaa !26
  %158 = call noundef i32 @_ZNK6icu_779UVector3210elementAtiEi(ptr noundef nonnull align 8 dereferenceable(32) %156, i32 noundef %157)
  store i32 %158, ptr %18, align 4, !tbaa !26
  %159 = getelementptr inbounds nuw %"class.icu_77::RBBITableBuilder", ptr %19, i32 0, i32 5
  %160 = load ptr, ptr %159, align 8, !tbaa !22
  %161 = load i32, ptr %9, align 4, !tbaa !26
  %162 = load i32, ptr %17, align 4, !tbaa !26
  call void @_ZN6icu_779UVector3212setElementAtEii(ptr noundef nonnull align 8 dereferenceable(32) %160, i32 noundef %161, i32 noundef %162)
  call void @llvm.lifetime.end.p0(i64 4, ptr %18) #11
  call void @llvm.lifetime.end.p0(i64 4, ptr %17) #11
  store i32 0, ptr %7, align 4
  br label %163

163:                                              ; preds = %151, %150
  call void @llvm.lifetime.end.p0(i64 8, ptr %16) #11
  %164 = load i32, ptr %7, align 4
  switch i32 %164, label %182 [
    i32 0, label %165
    i32 10, label %166
  ]

165:                                              ; preds = %163
  br label %166

166:                                              ; preds = %165, %163
  %167 = load i32, ptr %15, align 4, !tbaa !26
  %168 = add nsw i32 %167, 1
  store i32 %168, ptr %15, align 4, !tbaa !26
  br label %132, !llvm.loop !88

169:                                              ; preds = %139
  store i32 0, ptr %7, align 4
  br label %170

170:                                              ; preds = %169, %123
  call void @llvm.lifetime.end.p0(i64 1, ptr %10) #11
  call void @llvm.lifetime.end.p0(i64 4, ptr %9) #11
  call void @llvm.lifetime.end.p0(i64 8, ptr %8) #11
  %171 = load i32, ptr %7, align 4
  switch i32 %171, label %182 [
    i32 0, label %172
    i32 4, label %173
  ]

172:                                              ; preds = %170
  br label %173

173:                                              ; preds = %172, %170
  %174 = load i32, ptr %6, align 4, !tbaa !26
  %175 = add nsw i32 %174, 1
  store i32 %175, ptr %6, align 4, !tbaa !26
  br label %65, !llvm.loop !89

176:                                              ; preds = %55, %71
  ret void

177:                                              ; preds = %48
  %178 = load ptr, ptr %4, align 8
  %179 = load i32, ptr %5, align 4
  %180 = insertvalue { ptr, i32 } poison, ptr %178, 0
  %181 = insertvalue { ptr, i32 } %180, i32 %179, 1
  resume { ptr, i32 } %181

182:                                              ; preds = %170, %163, %114
  unreachable
}