; Function Attrs: mustprogress uwtable
define void @_ZN6icu_7716RBBITableBuilder17mapLookAheadRulesEv(ptr noundef nonnull align 8 captures(none) dereferenceable(52) %0) local_unnamed_addr #0 align 2 personality ptr @__gxx_personality_v0 {
  %2 = tail call noundef ptr @_ZN6icu_777UMemorynwEm(i64 noundef 32) #13
  %3 = icmp eq ptr %2, null
  br i1 %3, label %.thread, label %4

4:                                                ; preds = %1
  %5 = load ptr, ptr %0, align 8, !tbaa !3
  %6 = getelementptr inbounds nuw i8, ptr %5, i64 104
  %7 = load ptr, ptr %6, align 8, !tbaa !73
  %8 = invoke noundef i32 @_ZN6icu_7715RBBIRuleScanner8numRulesEv(ptr noundef nonnull align 8 dereferenceable(3192) %7)
          to label %9 unwind label %16

9:                                                ; preds = %4
  %10 = add nsw i32 %8, 1
  %11 = getelementptr inbounds nuw i8, ptr %0, i64 16
  %12 = load ptr, ptr %11, align 8, !tbaa !15
  invoke void @_ZN6icu_779UVector32C1EiR10UErrorCode(ptr noundef nonnull align 8 dereferenceable(32) %2, i32 noundef %10, ptr noundef nonnull align 4 dereferenceable(4) %12)
          to label %18 unwind label %16

.thread:                                          ; preds = %1
  %13 = getelementptr inbounds nuw i8, ptr %0, i64 40
  store ptr null, ptr %13, align 8, !tbaa !29
  %14 = getelementptr inbounds nuw i8, ptr %0, i64 16
  %15 = load ptr, ptr %14, align 8, !tbaa !15
  store i32 7, ptr %15, align 4, !tbaa !17
  br label %.loopexit41

16:                                               ; preds = %9, %4
  %17 = landingpad { ptr, i32 }
          cleanup
  tail call void @_ZN6icu_777UMemorydlEPv(ptr noundef nonnull %2) #13
  resume { ptr, i32 } %17

18:                                               ; preds = %9
  %19 = getelementptr inbounds nuw i8, ptr %0, i64 40
  store ptr %2, ptr %19, align 8, !tbaa !29
  %.pre = load ptr, ptr %11, align 8, !tbaa !15
  %.pre52 = load i32, ptr %.pre, align 4, !tbaa !17
  %20 = icmp slt i32 %.pre52, 1
  br i1 %20, label %21, label %.loopexit41

21:                                               ; preds = %18
  %22 = load ptr, ptr %0, align 8, !tbaa !3
  %23 = getelementptr inbounds nuw i8, ptr %22, i64 104
  %24 = load ptr, ptr %23, align 8, !tbaa !73
  %25 = tail call noundef i32 @_ZN6icu_7715RBBIRuleScanner8numRulesEv(ptr noundef nonnull align 8 dereferenceable(3192) %24)
  %26 = add nsw i32 %25, 1
  tail call void @_ZN6icu_779UVector327setSizeEi(ptr noundef nonnull align 8 dereferenceable(32) %2, i32 noundef %26)
  %27 = getelementptr inbounds nuw i8, ptr %0, i64 24
  %28 = load ptr, ptr %27, align 8, !tbaa !19
  %29 = getelementptr inbounds nuw i8, ptr %28, i64 8
  %30 = load i32, ptr %29, align 8, !tbaa !20
  %31 = icmp sgt i32 %30, 0
  br i1 %31, label %.lr.ph51, label %.loopexit41

.lr.ph51:                                         ; preds = %21
  %32 = getelementptr inbounds nuw i8, ptr %0, i64 48
  br label %33

33:                                               ; preds = %.lr.ph51, %.loopexit
  %34 = phi ptr [ %28, %.lr.ph51 ], [ %92, %.loopexit ]
  %.049 = phi i32 [ 0, %.lr.ph51 ], [ %91, %.loopexit ]
  %35 = tail call noundef ptr @_ZNK6icu_777UVector9elementAtEi(ptr noundef nonnull align 8 dereferenceable(40) %34, i32 noundef %.049)
  %36 = getelementptr inbounds nuw i8, ptr %35, i64 32
  %37 = load ptr, ptr %36, align 8, !tbaa !64
  %38 = getelementptr inbounds nuw i8, ptr %37, i64 8
  %39 = load i32, ptr %38, align 8, !tbaa !20
  %40 = icmp sgt i32 %39, 0
  br i1 %40, label %.lr.ph.outer, label %.loopexit

.lr.ph.outer:                                     ; preds = %33, %.thread55
  %.ph = phi ptr [ %68, %.thread55 ], [ %37, %33 ]
  %.03144.ph = phi i32 [ %spec.select, %.thread55 ], [ 0, %33 ]
  %.03243.ph = phi i1 [ true, %.thread55 ], [ false, %33 ]
  %.03442.ph = phi i32 [ %67, %.thread55 ], [ 0, %33 ]
  br label %.lr.ph

._crit_edge:                                      ; preds = %58
  br i1 %.03243.ph, label %._crit_edge.thread60, label %.loopexit

.lr.ph:                                           ; preds = %.lr.ph.outer, %58
  %41 = phi ptr [ %60, %58 ], [ %.ph, %.lr.ph.outer ]
  %.03442 = phi i32 [ %59, %58 ], [ %.03442.ph, %.lr.ph.outer ]
  %42 = tail call noundef ptr @_ZNK6icu_777UVector9elementAtEi(ptr noundef nonnull align 8 dereferenceable(40) %41, i32 noundef %.03442)
  %43 = load i32, ptr %42, align 8, !tbaa !52
  %.not38 = icmp eq i32 %43, 4
  br i1 %.not38, label %44, label %58

44:                                               ; preds = %.lr.ph
  %45 = getelementptr inbounds nuw i8, ptr %42, i64 124
  %46 = load i32, ptr %45, align 4, !tbaa !50
  %47 = load ptr, ptr %19, align 8, !tbaa !29
  %48 = icmp sgt i32 %46, -1
  %49 = getelementptr inbounds nuw i8, ptr %47, i64 8
  %50 = load i32, ptr %49, align 8
  %51 = icmp sgt i32 %50, %46
  %or.cond.i = select i1 %48, i1 %51, i1 false
  br i1 %or.cond.i, label %52, label %.thread55

52:                                               ; preds = %44
  %53 = getelementptr inbounds nuw i8, ptr %47, i64 24
  %54 = load ptr, ptr %53, align 8, !tbaa !74
  %55 = zext nneg i32 %46 to i64
  %56 = getelementptr inbounds nuw i32, ptr %54, i64 %55
  %57 = load i32, ptr %56, align 4, !tbaa !77
  br label %.thread55

58:                                               ; preds = %.lr.ph
  %59 = add nuw nsw i32 %.03442, 1
  %60 = load ptr, ptr %36, align 8, !tbaa !64
  %61 = getelementptr inbounds nuw i8, ptr %60, i64 8
  %62 = load i32, ptr %61, align 8, !tbaa !20
  %63 = icmp slt i32 %59, %62
  br i1 %63, label %.lr.ph, label %._crit_edge, !llvm.loop !78

.thread55:                                        ; preds = %52, %44
  %64 = phi i32 [ %57, %52 ], [ 0, %44 ]
  %65 = icmp ne i32 %64, 0
  %66 = icmp eq i32 %.03144.ph, 0
  %or.cond = select i1 %65, i1 %66, i1 false
  %spec.select = select i1 %or.cond, i32 %64, i32 %.03144.ph
  %67 = add nuw nsw i32 %.03442, 1
  %68 = load ptr, ptr %36, align 8, !tbaa !64
  %69 = getelementptr inbounds nuw i8, ptr %68, i64 8
  %70 = load i32, ptr %69, align 8, !tbaa !20
  %71 = icmp slt i32 %67, %70
  br i1 %71, label %.lr.ph.outer, label %._crit_edge.thread60, !llvm.loop !78

._crit_edge.thread60:                             ; preds = %.thread55, %._crit_edge
  %.in = phi i32 [ %62, %._crit_edge ], [ %70, %.thread55 ]
  %.15963 = phi i32 [ %.03144.ph, %._crit_edge ], [ %spec.select, %.thread55 ]
  %72 = phi ptr [ %60, %._crit_edge ], [ %68, %.thread55 ]
  %73 = icmp sgt i32 %.in, 0
  %74 = icmp eq i32 %.15963, 0
  br i1 %74, label %75, label %78

75:                                               ; preds = %._crit_edge.thread60
  %76 = load i32, ptr %32, align 8, !tbaa !16
  %77 = add nsw i32 %76, 1
  store i32 %77, ptr %32, align 8, !tbaa !16
  br label %78

78:                                               ; preds = %75, %._crit_edge.thread60
  %.3 = phi i32 [ %77, %75 ], [ %.15963, %._crit_edge.thread60 ]
  br i1 %73, label %.lr.ph48, label %.loopexit

.lr.ph48:                                         ; preds = %78, %85
  %79 = phi ptr [ %87, %85 ], [ %72, %78 ]
  %.03046 = phi i32 [ %86, %85 ], [ 0, %78 ]
  %80 = tail call noundef ptr @_ZNK6icu_777UVector9elementAtEi(ptr noundef nonnull align 8 dereferenceable(40) %79, i32 noundef %.03046)
  %81 = load i32, ptr %80, align 8, !tbaa !52
  %.not37 = icmp eq i32 %81, 4
  br i1 %.not37, label %_ZNK6icu_779UVector3210elementAtiEi.exit40, label %85

_ZNK6icu_779UVector3210elementAtiEi.exit40:       ; preds = %.lr.ph48
  %82 = getelementptr inbounds nuw i8, ptr %80, i64 124
  %83 = load i32, ptr %82, align 4, !tbaa !50
  %84 = load ptr, ptr %19, align 8, !tbaa !29
  tail call void @_ZN6icu_779UVector3212setElementAtEii(ptr noundef nonnull align 8 dereferenceable(32) %84, i32 noundef %.3, i32 noundef %83)
  br label %85

85:                                               ; preds = %.lr.ph48, %_ZNK6icu_779UVector3210elementAtiEi.exit40
  %86 = add nuw nsw i32 %.03046, 1
  %87 = load ptr, ptr %36, align 8, !tbaa !64
  %88 = getelementptr inbounds nuw i8, ptr %87, i64 8
  %89 = load i32, ptr %88, align 8, !tbaa !20
  %90 = icmp slt i32 %86, %89
  br i1 %90, label %.lr.ph48, label %.loopexit, !llvm.loop !79

.loopexit:                                        ; preds = %85, %33, %78, %._crit_edge
  %91 = add nuw nsw i32 %.049, 1
  %92 = load ptr, ptr %27, align 8, !tbaa !19
  %93 = getelementptr inbounds nuw i8, ptr %92, i64 8
  %94 = load i32, ptr %93, align 8, !tbaa !20
  %95 = icmp slt i32 %91, %94
  br i1 %95, label %33, label %.loopexit41, !llvm.loop !80

.loopexit41:                                      ; preds = %.loopexit, %.thread, %21, %18
  ret void
}